target datalayout = "e-m:e-p270:32:32-p271:32:32-p272:64:64-i64:64-i128:128-f80:128-n8:16:32:64-S128"
target triple = "x86_64-pc-linux-gnu"

%struct.tng_molecule = type { i64, i64, i64, i64, i64, i64, ptr, ptr, ptr, ptr, ptr }
%struct.tng_chain = type { ptr, i64, ptr, i64, ptr }

; Function Attrs: nounwind uwtable
define i32 @tng_molecule_chain_find(ptr noundef %0, ptr noundef %1, ptr noundef %2, i64 noundef %3, ptr noundef %4) #0 {
  %6 = alloca i32, align 4
  %7 = alloca ptr, align 8
  %8 = alloca ptr, align 8
  %9 = alloca ptr, align 8
  %10 = alloca i64, align 8
  %11 = alloca ptr, align 8
  %12 = alloca i64, align 8
  %13 = alloca i64, align 8
  %14 = alloca i32, align 4
  store ptr %0, ptr %7, align 8, !tbaa !3
  store ptr %1, ptr %8, align 8, !tbaa !45
  store ptr %2, ptr %9, align 8, !tbaa !19
  store i64 %3, ptr %10, align 8, !tbaa !26
  store ptr %4, ptr %11, align 8, !tbaa !90
  call void @llvm.lifetime.start.p0(i64 8, ptr %12) #11
  call void @llvm.lifetime.start.p0(i64 8, ptr %13) #11
  %15 = load ptr, ptr %8, align 8, !tbaa !45
  %16 = getelementptr inbounds nuw %struct.tng_molecule, ptr %15, i32 0, i32 2
  %17 = load i64, ptr %16, align 8, !tbaa !50
  store i64 %17, ptr %13, align 8, !tbaa !26
  %18 = load i64, ptr %13, align 8, !tbaa !26
  %19 = sub nsw i64 %18, 1
  store i64 %19, ptr %12, align 8, !tbaa !26
  br label %20

20:                                               ; preds = %56, %5
  %21 = load i64, ptr %12, align 8, !tbaa !26
  %22 = icmp sge i64 %21, 0
  br i1 %22, label %23, label %59

23:                                               ; preds = %20
  %24 = load ptr, ptr %8, align 8, !tbaa !45
  %25 = getelementptr inbounds nuw %struct.tng_molecule, ptr %24, i32 0, i32 7
  %26 = load ptr, ptr %25, align 8, !tbaa !51
  %27 = load i64, ptr %12, align 8, !tbaa !26
  %28 = getelementptr inbounds %struct.tng_chain, ptr %26, i64 %27
  %29 = load ptr, ptr %11, align 8, !tbaa !90
  store ptr %28, ptr %29, align 8, !tbaa !59
  %30 = load ptr, ptr %9, align 8, !tbaa !19
  %31 = getelementptr inbounds i8, ptr %30, i64 0
  %32 = load i8, ptr %31, align 1, !tbaa !23
  %33 = sext i8 %32 to i32
  %34 = icmp eq i32 %33, 0
  br i1 %34, label %43, label %35

35:                                               ; preds = %23
  %36 = load ptr, ptr %9, align 8, !tbaa !19
  %37 = load ptr, ptr %11, align 8, !tbaa !90
  %38 = load ptr, ptr %37, align 8, !tbaa !59
  %39 = getelementptr inbounds nuw %struct.tng_chain, ptr %38, i32 0, i32 2
  %40 = load ptr, ptr %39, align 8, !tbaa !70
  %41 = call i32 @strcmp(ptr noundef %36, ptr noundef %40) #12
  %42 = icmp eq i32 %41, 0
  br i1 %42, label %43, label %55

43:                                               ; preds = %35, %23
  %44 = load i64, ptr %10, align 8, !tbaa !26
  %45 = icmp eq i64 %44, -1
  br i1 %45, label %53, label %46

46:                                               ; preds = %43
  %47 = load i64, ptr %10, align 8, !tbaa !26
  %48 = load ptr, ptr %11, align 8, !tbaa !90
  %49 = load ptr, ptr %48, align 8, !tbaa !59
  %50 = getelementptr inbounds nuw %struct.tng_chain, ptr %49, i32 0, i32 1
  %51 = load i64, ptr %50, align 8, !tbaa !72
  %52 = icmp eq i64 %47, %51
  br i1 %52, label %53, label %54

53:                                               ; preds = %46, %43
  store i32 0, ptr %6, align 4
  store i32 1, ptr %14, align 4
  br label %61

54:                                               ; preds = %46
  br label %55

55:                                               ; preds = %54, %35
  br label %56

56:                                               ; preds = %55
  %57 = load i64, ptr %12, align 8, !tbaa !26
  %58 = add nsw i64 %57, -1
  store i64 %58, ptr %12, align 8, !tbaa !26
  br label %20, !llvm.loop !96

59:                                               ; preds = %20
  %60 = load ptr, ptr %11, align 8, !tbaa !90
  store ptr null, ptr %60, align 8, !tbaa !59
  store i32 1, ptr %6, align 4
  store i32 1, ptr %14, align 4
  br label %61

61:                                               ; preds = %59, %53
  call void @llvm.lifetime.end.p0(i64 8, ptr %13) #11
  call void @llvm.lifetime.end.p0(i64 8, ptr %12) #11
  %62 = load i32, ptr %6, align 4
  ret i32 %62
}